(lp1
S'azer+rss@kodfabrik.com'
p2
a(i__main__
Feed
p3
(dp4
S'url'
p5
S'http://news.ycombinator.com/rss'
p6
sS'modified'
p7
NsS'to'
p8
NsS'etag'
p9
NsS'active'
p10
I01
sS'seen'
p11
(dp12
S'b8518daaa3c440b16b550013fab2b757'
p13
g13
sS'6e8d59f3be9aa75cf42206fc4eb42cae'
p14
g14
sS'bce78c215f709a609493db9cd4874f56'
p15
g15
sS'fce2929b9a8f8875289a6422184ce9c9'
p16
g16
sS'368edefb2c29c1f87afb098822bf7c1c'
p17
g17
sS'f8e23620456dbd2e8ef0071c6778424d'
p18
g18
sS'cb97b22d4333030e49b60e5544283673'
p19
g19
sS'3321c715975002585cbfd8de39b8b6aa'
p20
g20
ssba.